; Function Attrs: mustprogress nofree norecurse nounwind sspstrong willreturn memory(write, argmem: readwrite, inaccessiblemem: none) uwtable
define void @_ZN3tbb6detail2r113observer_list6removeEPNS1_14observer_proxyE(ptr noundef nonnull align 8 captures(none) dereferenceable(32) %0, ptr noundef readonly %1) local_unnamed_addr #3 align 2 {
  %3 = getelementptr inbounds nuw i8, ptr %0, i64 8
  %4 = load atomic i64, ptr %3 monotonic, align 8
  %.0.i.i = inttoptr i64 %4 to ptr
  %5 = icmp eq ptr %1, %.0.i.i
  %6 = getelementptr inbounds nuw i8, ptr %1, i64 24
  %7 = load ptr, ptr %6, align 8, !tbaa !20
  br i1 %5, label %8, label %10

8:                                                ; preds = %2
  %9 = ptrtoint ptr %7 to i64
  store atomic i64 %9, ptr %3 monotonic, align 8
  br label %14

10:                                               ; preds = %2
  %11 = getelementptr inbounds nuw i8, ptr %1, i64 16
  %12 = load ptr, ptr %11, align 8, !tbaa !18
  %13 = getelementptr inbounds nuw i8, ptr %12, i64 24
  store ptr %7, ptr %13, align 8, !tbaa !20
  br label %14

14:                                               ; preds = %10, %8
  %15 = load atomic i64, ptr %0 monotonic, align 8
  %.0.i.i9 = inttoptr i64 %15 to ptr
  %16 = icmp eq ptr %1, %.0.i.i9
  %17 = getelementptr inbounds nuw i8, ptr %1, i64 16
  %18 = load ptr, ptr %17, align 8, !tbaa !18
  br i1 %16, label %19, label %21

19:                                               ; preds = %14
  %20 = ptrtoint ptr %18 to i64
  store atomic i64 %20, ptr %0 monotonic, align 8
  br label %25

21:                                               ; preds = %14
  %22 = getelementptr inbounds nuw i8, ptr %1, i64 24
  %23 = load ptr, ptr %22, align 8, !tbaa !20
  %24 = getelementptr inbounds nuw i8, ptr %23, i64 16
  store ptr %18, ptr %24, align 8, !tbaa !18
  br label %25

25:                                               ; preds = %21, %19
  ret void
}